(lp0
((I6
I357
tp1
I0
tp2
a((I13
I338
tp3
I1
tp4
a((I21
I320
tp5
I2
tp6
a((I29
I302
tp7
I3
tp8
a((I37
I286
tp9
I4
tp10
a((I45
I270
tp11
I5
tp12
a((I53
I255
tp13
I6
tp14
a((I61
I241
tp15
I7
tp16
a((I69
I228
tp17
I8
tp18
a((I76
I216
tp19
I9
tp20
a((I84
I204
tp21
I10
tp22
a((I91
I194
tp23
I11
tp24
a((I98
I184
tp25
I12
tp26
a((I105
I175
tp27
I13
tp28
a((I111
I166
tp29
I14
tp30
a((I111
I166
tp31
I15
tp32
a((I123
I164
tp33
I16
tp34
a((I135
I162
tp35
I17
tp36
a((I148
I161
tp37
I18
tp38
a((I162
I159
tp39
I19
tp40
a((I176
I157
tp41
I20
tp42
a((I191
I155
tp43
I21
tp44
a((I207
I154
tp45
I22
tp46
a((I223
I152
tp47
I23
tp48
a((I239
I151
tp49
I24
tp50
a((I256
I149
tp51
I25
tp52
a((I273
I148
tp53
I26
tp54
a((I290
I147
tp55
I27
tp56
a((I308
I146
tp57
I28
tp58
a((I325
I145
tp59
I29
tp60
a((I343
I145
tp61
I30
tp62
a((I360
I145
tp63
I31
tp64
a((I377
I144
tp65
I32
tp66
a((I393
I145
tp67
I33
tp68
a((I409
I145
tp69
I34
tp70
a((I425
I145
tp71
I35
tp72
a((I440
I146
tp73
I36
tp74
a((I455
I146
tp75
I37
tp76
a((I469
I147
tp77
I38
tp78
a((I482
I147
tp79
I39
tp80
a((I495
I148
tp81
I40
tp82
a((I507
I149
tp83
I41
tp84
a((I518
I150
tp85
I42
tp86
a((I520
I150
tp87
I43
tp88
a((I528
I158
tp89
I44
tp90
a((I535
I167
tp91
I45
tp92
a((I543
I176
tp93
I46
tp94
a((I551
I186
tp95
I47
tp96
a((I559
I197
tp97
I48
tp98
a((I568
I208
tp99
I49
tp100
a((I577
I220
tp101
I50
tp102
a((I586
I233
tp103
I51
tp104
a((I595
I247
tp105
I52
tp106
a((I604
I262
tp107
I53
tp108
a((I613
I278
tp109
I54
tp110
a((I622
I294
tp111
I55
tp112
a((I630
I311
tp113
I56
tp114
a((I637
I328
tp115
I57
tp116
a((I636
I331
tp117
I58
tp118
a((I626
I337
tp119
I59
tp120
a((I614
I342
tp121
I60
tp122
a((I601
I347
tp123
I61
tp124
a((I586
I353
tp125
I62
tp126
a((I569
I358
tp127
I63
tp128
a((I550
I365
tp129
I64
tp130
a((I529
I371
tp131
I65
tp132
a((I505
I377
tp133
I66
tp134
a((I478
I383
tp135
I67
tp136
a((I449
I388
tp137
I68
tp138
a((I418
I393
tp139
I69
tp140
a((I385
I397
tp141
I70
tp142
a((I350
I400
tp143
I71
tp144
a((I314
I402
tp145
I72
tp146
a((I279
I402
tp147
I73
tp148
a((I244
I401
tp149
I74
tp150
a((I211
I399
tp151
I75
tp152
a((I180
I396
tp153
I76
tp154
a((I152
I393
tp155
I77
tp156
a((I126
I389
tp157
I78
tp158
a((I102
I385
tp159
I79
tp160
a((I81
I380
tp161
I80
tp162
a((I62
I376
tp163
I81
tp164
a((I46
I371
tp165
I82
tp166
a((I31
I367
tp167
I83
tp168
a((I18
I362
tp169
I84
tp170
a((I6
I358
tp171
I85
tp172
a.