(lp0
((I4
I291
tp1
I0
tp2
a((I10
I272
tp3
I1
tp4
a((I17
I255
tp5
I2
tp6
a((I24
I238
tp7
I3
tp8
a((I32
I221
tp9
I4
tp10
a((I39
I206
tp11
I5
tp12
a((I46
I192
tp13
I6
tp14
a((I54
I178
tp15
I7
tp16
a((I61
I166
tp17
I8
tp18
a((I68
I154
tp19
I9
tp20
a((I75
I143
tp21
I10
tp22
a((I82
I132
tp23
I11
tp24
a((I88
I123
tp25
I12
tp26
a((I95
I114
tp27
I13
tp28
a((I101
I106
tp29
I14
tp30
a((I101
I106
tp31
I15
tp32
a((I113
I103
tp33
I16
tp34
a((I125
I101
tp35
I17
tp36
a((I138
I99
tp37
I18
tp38
a((I151
I97
tp39
I19
tp40
a((I165
I95
tp41
I20
tp42
a((I180
I94
tp43
I21
tp44
a((I195
I92
tp45
I22
tp46
a((I211
I91
tp47
I23
tp48
a((I227
I89
tp49
I24
tp50
a((I244
I89
tp51
I25
tp52
a((I261
I88
tp53
I26
tp54
a((I278
I87
tp55
I27
tp56
a((I295
I87
tp57
I28
tp58
a((I312
I88
tp59
I29
tp60
a((I329
I88
tp61
I30
tp62
a((I347
I89
tp63
I31
tp64
a((I363
I90
tp65
I32
tp66
a((I380
I91
tp67
I33
tp68
a((I396
I92
tp69
I34
tp70
a((I411
I94
tp71
I35
tp72
a((I427
I96
tp73
I36
tp74
a((I441
I98
tp75
I37
tp76
a((I455
I100
tp77
I38
tp78
a((I468
I102
tp79
I39
tp80
a((I481
I104
tp81
I40
tp82
a((I493
I106
tp83
I41
tp84
a((I505
I109
tp85
I42
tp86
a((I506
I109
tp87
I43
tp88
a((I512
I117
tp89
I44
tp90
a((I518
I126
tp91
I45
tp92
a((I525
I136
tp93
I46
tp94
a((I532
I146
tp95
I47
tp96
a((I538
I157
tp97
I48
tp98
a((I546
I169
tp99
I49
tp100
a((I553
I181
tp101
I50
tp102
a((I560
I195
tp103
I51
tp104
a((I567
I209
tp105
I52
tp106
a((I574
I224
tp107
I53
tp108
a((I582
I240
tp109
I54
tp110
a((I589
I256
tp111
I55
tp112
a((I595
I274
tp113
I56
tp114
a((I602
I292
tp115
I57
tp116
a((I601
I292
tp117
I58
tp118
a((I589
I294
tp119
I59
tp120
a((I576
I296
tp121
I60
tp122
a((I562
I298
tp123
I61
tp124
a((I546
I301
tp125
I62
tp126
a((I529
I303
tp127
I63
tp128
a((I509
I305
tp129
I64
tp130
a((I488
I307
tp131
I65
tp132
a((I465
I309
tp133
I66
tp134
a((I439
I311
tp135
I67
tp136
a((I412
I313
tp137
I68
tp138
a((I382
I314
tp139
I69
tp140
a((I352
I315
tp141
I70
tp142
a((I320
I316
tp143
I71
tp144
a((I288
I316
tp145
I72
tp146
a((I256
I315
tp147
I73
tp148
a((I226
I314
tp149
I74
tp150
a((I196
I313
tp151
I75
tp152
a((I168
I311
tp153
I76
tp154
a((I142
I309
tp155
I77
tp156
a((I119
I307
tp157
I78
tp158
a((I97
I304
tp159
I79
tp160
a((I77
I302
tp161
I80
tp162
a((I59
I300
tp163
I81
tp164
a((I43
I297
tp165
I82
tp166
a((I29
I295
tp167
I83
tp168
a((I16
I293
tp169
I84
tp170
a((I4
I291
tp171
I85
tp172
a.